#include <math.h>
#include <stdio.h>
#include <stdlib.h>
#include <string.h>

int main()
{
	int sushu(int x);
	int m,i,j,k;
	scanf("%d",&m);
	for (i=3;i<=m/2;i++)
	{
		k=sushu(i);
		if (k==1)
		{
			j=m-i;
			if (sushu(j)==1) printf("%d %d\n",i,j);
			
		}
		
	}
	return 0;
}
int sushu(int x)
{
	int n;
	for (n=2;n<x;n++)
	{
		if (x%n==0)
		{return 0;break;}
	}
	if (n>=x) return 1;
}
